target datalayout = "e-m:e-p270:32:32-p271:32:32-p272:64:64-i64:64-i128:128-f80:128-n8:16:32:64-S128"
target triple = "x86_64-pc-linux-gnu"

%"class.V3List<V3GraphEdge, &V3GraphEdge::oLinks>::SimpleItertatorImpl" = type { ptr }
%class.V3ListLinks = type { ptr, ptr }
%class.V3GraphVertex = type { ptr, %class.V3ListLinks, %class.V3List.0, %class.V3List.1, double, i32, i32, %union.anon }
%class.V3List.0 = type { ptr, ptr }
%class.V3List.1 = type { ptr, ptr }
%union.anon = type { ptr }
%class.V3ErrorCode = type { i8 }
%"class.V3List<V3GraphEdge, &V3GraphEdge::iLinks>::SimpleItertatorImpl" = type { ptr }
%class.V3GraphEdge = type { ptr, %class.V3ListLinks.7, %class.V3ListLinks.7, ptr, ptr, i32, i8, %union.anon.8 }
%class.V3ListLinks.7 = type { ptr, ptr }
%union.anon.8 = type { ptr }

@.str.1 = private unnamed_addr constant [116 x i8] c"generated/home/dtcxzyw/WorkSpace/Projects/compilers/llvm-opt-benchmark/bench/verilator/verilator/src/V3GraphAlg.cpp\00", align 1
@.str.3 = private unnamed_addr constant [42 x i8] c"Loop found, backward edges should be dead\00", align 1

; Function Attrs: mustprogress nounwind uwtable
define linkonce_odr dso_local void @_ZN13V3GraphVertex6fanoutEd(ptr noundef nonnull align 8 dereferenceable(80) %0, double noundef %1) #5 comdat align 2 {
  %3 = alloca ptr, align 8
  %4 = alloca double, align 8
  store ptr %0, ptr %3, align 8
  store double %1, ptr %4, align 8
  %5 = load ptr, ptr %3, align 8
  %6 = load double, ptr %4, align 8
  %7 = getelementptr inbounds %class.V3GraphVertex, ptr %5, i32 0, i32 4
  store double %6, ptr %7, align 8
  ret void
}

; Function Attrs: mustprogress nounwind uwtable
define linkonce_odr dso_local noundef nonnull align 8 dereferenceable(16) ptr @_ZN11V3GraphEdge6iLinksEv(ptr noundef nonnull align 8 dereferenceable(72) %0) #5 comdat align 2 {
  %2 = alloca ptr, align 8
  store ptr %0, ptr %2, align 8
  %3 = load ptr, ptr %2, align 8
  %4 = getelementptr inbounds %class.V3GraphEdge, ptr %3, i32 0, i32 2
  ret ptr %4
}

; Function Attrs: mustprogress uwtable
define linkonce_odr dso_local ptr @_ZN6V3ListI11V3GraphEdgeXadL_ZNS0_6iLinksEvEES0_E3endEv(ptr noundef nonnull align 8 dereferenceable(16) %0) #4 comdat align 2 {
  %2 = alloca ptr, align 8
  %3 = alloca ptr, align 8
  %4 = alloca %"class.V3List<V3GraphEdge, &V3GraphEdge::iLinks>::SimpleItertatorImpl", align 8
  %5 = alloca ptr, align 8
  store ptr %0, ptr %5, align 8
  store ptr %4, ptr %2, align 8
  store ptr null, ptr %3, align 8
  %6 = load ptr, ptr %2, align 8
  %7 = load ptr, ptr %3, align 8
  store ptr %7, ptr %6, align 8
  %8 = getelementptr inbounds %"class.V3List<V3GraphEdge, &V3GraphEdge::iLinks>::SimpleItertatorImpl", ptr %4, i32 0, i32 0
  %9 = load ptr, ptr %8, align 8
  ret ptr %9
}

; Function Attrs: mustprogress uwtable
define linkonce_odr dso_local ptr @_ZN6V3ListI11V3GraphEdgeXadL_ZNS0_6iLinksEvEES0_E5beginEv(ptr noundef nonnull align 8 dereferenceable(16) %0) #4 comdat align 2 {
  %2 = alloca ptr, align 8
  %3 = alloca ptr, align 8
  %4 = alloca %"class.V3List<V3GraphEdge, &V3GraphEdge::iLinks>::SimpleItertatorImpl", align 8
  %5 = alloca ptr, align 8
  store ptr %0, ptr %5, align 8
  %6 = load ptr, ptr %5, align 8
  %7 = getelementptr inbounds %class.V3List.1, ptr %6, i32 0, i32 0
  %8 = load ptr, ptr %7, align 8
  store ptr %4, ptr %2, align 8
  store ptr %8, ptr %3, align 8
  %9 = load ptr, ptr %2, align 8
  %10 = load ptr, ptr %3, align 8
  store ptr %10, ptr %9, align 8
  %11 = getelementptr inbounds %"class.V3List<V3GraphEdge, &V3GraphEdge::iLinks>::SimpleItertatorImpl", ptr %4, i32 0, i32 0
  %12 = load ptr, ptr %11, align 8
  ret ptr %12
}

; Function Attrs: mustprogress nounwind uwtable
define linkonce_odr dso_local noundef nonnull align 8 dereferenceable(16) ptr @_ZN13V3GraphVertex7inEdgesEv(ptr noundef nonnull align 8 dereferenceable(80) %0) #5 comdat align 2 {
  %2 = alloca ptr, align 8
  store ptr %0, ptr %2, align 8
  %3 = load ptr, ptr %2, align 8
  %4 = getelementptr inbounds %class.V3GraphVertex, ptr %3, i32 0, i32 3
  ret ptr %4
}

; Function Attrs: mustprogress nounwind uwtable
define linkonce_odr dso_local noundef ptr @_ZNK11V3GraphEdge3topEv(ptr noundef nonnull align 8 dereferenceable(72) %0) #5 comdat align 2 {
  %2 = alloca ptr, align 8
  store ptr %0, ptr %2, align 8
  %3 = load ptr, ptr %2, align 8
  %4 = getelementptr inbounds %class.V3GraphEdge, ptr %3, i32 0, i32 4
  %5 = load ptr, ptr %4, align 8
  ret ptr %5
}

; Function Attrs: mustprogress nounwind uwtable
define linkonce_odr dso_local noundef i32 @_ZNK11V3GraphEdge6weightEv(ptr noundef nonnull align 8 dereferenceable(72) %0) #5 comdat align 2 {
  %2 = alloca ptr, align 8
  store ptr %0, ptr %2, align 8
  %3 = load ptr, ptr %2, align 8
  %4 = getelementptr inbounds %class.V3GraphEdge, ptr %3, i32 0, i32 5
  %5 = load i32, ptr %4, align 8
  ret i32 %5
}

; Function Attrs: mustprogress nounwind uwtable
define linkonce_odr dso_local noundef nonnull align 8 dereferenceable(16) ptr @_ZN11V3GraphEdge6oLinksEv(ptr noundef nonnull align 8 dereferenceable(72) %0) #5 comdat align 2 {
  %2 = alloca ptr, align 8
  store ptr %0, ptr %2, align 8
  %3 = load ptr, ptr %2, align 8
  %4 = getelementptr inbounds %class.V3GraphEdge, ptr %3, i32 0, i32 1
  ret ptr %4
}

; Function Attrs: mustprogress uwtable
define linkonce_odr dso_local ptr @_ZN6V3ListI11V3GraphEdgeXadL_ZNS0_6oLinksEvEES0_E3endEv(ptr noundef nonnull align 8 dereferenceable(16) %0) #4 comdat align 2 {
  %2 = alloca ptr, align 8
  %3 = alloca ptr, align 8
  %4 = alloca %"class.V3List<V3GraphEdge, &V3GraphEdge::oLinks>::SimpleItertatorImpl", align 8
  %5 = alloca ptr, align 8
  store ptr %0, ptr %5, align 8
  store ptr %4, ptr %2, align 8
  store ptr null, ptr %3, align 8
  %6 = load ptr, ptr %2, align 8
  %7 = load ptr, ptr %3, align 8
  store ptr %7, ptr %6, align 8
  %8 = getelementptr inbounds %"class.V3List<V3GraphEdge, &V3GraphEdge::oLinks>::SimpleItertatorImpl", ptr %4, i32 0, i32 0
  %9 = load ptr, ptr %8, align 8
  ret ptr %9
}

; Function Attrs: mustprogress uwtable
define linkonce_odr dso_local ptr @_ZN6V3ListI11V3GraphEdgeXadL_ZNS0_6oLinksEvEES0_E5beginEv(ptr noundef nonnull align 8 dereferenceable(16) %0) #4 comdat align 2 {
  %2 = alloca ptr, align 8
  %3 = alloca ptr, align 8
  %4 = alloca %"class.V3List<V3GraphEdge, &V3GraphEdge::oLinks>::SimpleItertatorImpl", align 8
  %5 = alloca ptr, align 8
  store ptr %0, ptr %5, align 8
  %6 = load ptr, ptr %5, align 8
  %7 = getelementptr inbounds %class.V3List.0, ptr %6, i32 0, i32 0
  %8 = load ptr, ptr %7, align 8
  store ptr %4, ptr %2, align 8
  store ptr %8, ptr %3, align 8
  %9 = load ptr, ptr %2, align 8
  %10 = load ptr, ptr %3, align 8
  store ptr %10, ptr %9, align 8
  %11 = getelementptr inbounds %"class.V3List<V3GraphEdge, &V3GraphEdge::oLinks>::SimpleItertatorImpl", ptr %4, i32 0, i32 0
  %12 = load ptr, ptr %11, align 8
  ret ptr %12
}

; Function Attrs: mustprogress nounwind uwtable
define linkonce_odr dso_local noundef nonnull align 8 dereferenceable(16) ptr @_ZN13V3GraphVertex8outEdgesEv(ptr noundef nonnull align 8 dereferenceable(80) %0) #5 comdat align 2 {
  %2 = alloca ptr, align 8
  store ptr %0, ptr %2, align 8
  %3 = load ptr, ptr %2, align 8
  %4 = getelementptr inbounds %class.V3GraphVertex, ptr %3, i32 0, i32 2
  ret ptr %4
}

; Function Attrs: mustprogress nounwind uwtable
define linkonce_odr dso_local void @_ZN13V3GraphVertex4userEj(ptr noundef nonnull align 8 dereferenceable(80) %0, i32 noundef %1) #5 comdat align 2 {
  %3 = alloca ptr, align 8
  %4 = alloca i32, align 4
  store ptr %0, ptr %3, align 8
  store i32 %1, ptr %4, align 4
  %5 = load ptr, ptr %3, align 8
  %6 = load i32, ptr %4, align 4
  %7 = getelementptr inbounds %class.V3GraphVertex, ptr %5, i32 0, i32 7
  store i32 %6, ptr %7, align 8
  ret void
}

; Function Attrs: mustprogress nounwind uwtable
define linkonce_odr dso_local void @_ZN11V3ErrorCodeC2ENS_2enE(ptr noundef nonnull align 1 dereferenceable(1) %0, i8 noundef zeroext %1) unnamed_addr #5 comdat align 2 {
  %3 = alloca ptr, align 8
  %4 = alloca i8, align 1
  store ptr %0, ptr %3, align 8
  store i8 %1, ptr %4, align 1
  %5 = load ptr, ptr %3, align 8
  %6 = getelementptr inbounds %class.V3ErrorCode, ptr %5, i32 0, i32 0
  %7 = load i8, ptr %4, align 1
  store i8 %7, ptr %6, align 1
  ret void
}

; Function Attrs: mustprogress nounwind uwtable
define linkonce_odr dso_local noundef double @_ZNK13V3GraphVertex6fanoutEv(ptr noundef nonnull align 8 dereferenceable(80) %0) #5 comdat align 2 {
  %2 = alloca ptr, align 8
  store ptr %0, ptr %2, align 8
  %3 = load ptr, ptr %2, align 8
  %4 = getelementptr inbounds %class.V3GraphVertex, ptr %3, i32 0, i32 4
  %5 = load double, ptr %4, align 8
  ret double %5
}

; Function Attrs: mustprogress nounwind uwtable
define linkonce_odr dso_local noundef i32 @_ZNK13V3GraphVertex4userEv(ptr noundef nonnull align 8 dereferenceable(80) %0) #5 comdat align 2 {
  %2 = alloca ptr, align 8
  store ptr %0, ptr %2, align 8
  %3 = load ptr, ptr %2, align 8
  %4 = getelementptr inbounds %class.V3GraphVertex, ptr %3, i32 0, i32 7
  %5 = load i32, ptr %4, align 8
  ret i32 %5
}

; Function Attrs: mustprogress uwtable
define dso_local noundef double @_ZN7V3Graph15orderDFSIterateEP13V3GraphVertex(ptr noundef nonnull align 8 dereferenceable(24) %0, ptr noundef %1) #4 align 2 {
  %3 = alloca ptr, align 8
  %4 = alloca ptr, align 8
  %5 = alloca ptr, align 8
  %6 = alloca ptr, align 8
  %7 = alloca ptr, align 8
  %8 = alloca ptr, align 8
  %9 = alloca ptr, align 8
  %10 = alloca ptr, align 8
  %11 = alloca ptr, align 8
  %12 = alloca ptr, align 8
  %13 = alloca ptr, align 8
  %14 = alloca ptr, align 8
  %15 = alloca ptr, align 8
  %16 = alloca ptr, align 8
  %17 = alloca ptr, align 8
  %18 = alloca ptr, align 8
  %19 = alloca ptr, align 8
  %20 = alloca ptr, align 8
  %21 = alloca ptr, align 8
  %22 = alloca ptr, align 8
  %23 = alloca double, align 8
  %24 = alloca ptr, align 8
  %25 = alloca ptr, align 8
  %26 = alloca %class.V3ErrorCode, align 1
  %27 = alloca double, align 8
  %28 = alloca ptr, align 8
  %29 = alloca %"class.V3List<V3GraphEdge, &V3GraphEdge::oLinks>::SimpleItertatorImpl", align 8
  %30 = alloca %"class.V3List<V3GraphEdge, &V3GraphEdge::oLinks>::SimpleItertatorImpl", align 8
  %31 = alloca ptr, align 8
  %32 = alloca ptr, align 8
  %33 = alloca %"class.V3List<V3GraphEdge, &V3GraphEdge::iLinks>::SimpleItertatorImpl", align 8
  %34 = alloca %"class.V3List<V3GraphEdge, &V3GraphEdge::iLinks>::SimpleItertatorImpl", align 8
  %35 = alloca ptr, align 8
  store ptr %0, ptr %24, align 8
  store ptr %1, ptr %25, align 8
  %36 = load ptr, ptr %24, align 8
  %37 = load ptr, ptr %25, align 8
  %38 = call noundef i32 @_ZNK13V3GraphVertex4userEv(ptr noundef nonnull align 8 dereferenceable(80) %37)
  %39 = icmp eq i32 %38, 2
  br i1 %39, label %40, label %43

40:                                               ; preds = %2
  %41 = load ptr, ptr %25, align 8
  %42 = call noundef double @_ZNK13V3GraphVertex6fanoutEv(ptr noundef nonnull align 8 dereferenceable(80) %41)
  store double %42, ptr %23, align 8
  br label %161

43:                                               ; preds = %2
  br label %44

44:                                               ; preds = %43
  %45 = load ptr, ptr %25, align 8
  %46 = call noundef i32 @_ZNK13V3GraphVertex4userEv(ptr noundef nonnull align 8 dereferenceable(80) %45)
  %47 = icmp ne i32 %46, 1
  %48 = xor i1 %47, true
  %49 = xor i1 %48, true
  %50 = xor i1 %49, true
  br i1 %50, label %51, label %58

51:                                               ; preds = %44
  %52 = load ptr, ptr %25, align 8
  call void @_ZN11V3ErrorCodeC2ENS_2enE(ptr noundef nonnull align 1 dereferenceable(1) %26, i8 noundef zeroext 4)
  %53 = getelementptr inbounds %class.V3ErrorCode, ptr %26, i32 0, i32 0
  %54 = load i8, ptr %53, align 1
  %55 = call noundef nonnull align 8 dereferenceable(112) ptr @_ZN7V3Error19v3errorPrepFileLineB5cxx11E11V3ErrorCodePKcib(i8 %54, ptr noundef @.str.1, i32 noundef 489, i1 noundef zeroext true)
  %56 = call noundef nonnull align 8 dereferenceable(112) ptr @_ZN7V3Error10v3errorStrB5cxx11Ev()
  %57 = call noundef nonnull align 8 dereferenceable(8) ptr @_ZStlsISt11char_traitsIcEERSt13basic_ostreamIcT_ES5_PKc(ptr noundef nonnull align 8 dereferenceable(8) %56, ptr noundef @.str.3)
  call void @_ZNK13V3GraphVertex15v3errorEndFatalERNSt7__cxx1119basic_ostringstreamIcSt11char_traitsIcESaIcEEE(ptr noundef nonnull align 8 dereferenceable(80) %52, ptr noundef nonnull align 8 dereferenceable(112) %57)
  br label %58

58:                                               ; preds = %51, %44
  br label %59

59:                                               ; preds = %58
  %60 = load ptr, ptr %25, align 8
  call void @_ZN13V3GraphVertex4userEj(ptr noundef nonnull align 8 dereferenceable(80) %60, i32 noundef 1)
  store double 0.000000e+00, ptr %27, align 8
  %61 = load ptr, ptr %25, align 8
  %62 = call noundef nonnull align 8 dereferenceable(16) ptr @_ZN13V3GraphVertex8outEdgesEv(ptr noundef nonnull align 8 dereferenceable(80) %61)
  store ptr %62, ptr %28, align 8
  %63 = load ptr, ptr %28, align 8
  %64 = call ptr @_ZN6V3ListI11V3GraphEdgeXadL_ZNS0_6oLinksEvEES0_E5beginEv(ptr noundef nonnull align 8 dereferenceable(16) %63)
  %65 = getelementptr inbounds %"class.V3List<V3GraphEdge, &V3GraphEdge::oLinks>::SimpleItertatorImpl", ptr %29, i32 0, i32 0
  store ptr %64, ptr %65, align 8
  %66 = load ptr, ptr %28, align 8
  %67 = call ptr @_ZN6V3ListI11V3GraphEdgeXadL_ZNS0_6oLinksEvEES0_E3endEv(ptr noundef nonnull align 8 dereferenceable(16) %66)
  %68 = getelementptr inbounds %"class.V3List<V3GraphEdge, &V3GraphEdge::oLinks>::SimpleItertatorImpl", ptr %30, i32 0, i32 0
  store ptr %67, ptr %68, align 8
  br label %69

69:                                               ; preds = %102, %59
  store ptr %29, ptr %21, align 8
  store ptr %30, ptr %22, align 8
  %70 = load ptr, ptr %21, align 8
  %71 = load ptr, ptr %70, align 8
  %72 = load ptr, ptr %22, align 8
  %73 = load ptr, ptr %72, align 8
  %74 = icmp ne ptr %71, %73
  br i1 %74, label %75, label %109

75:                                               ; preds = %69
  store ptr %29, ptr %20, align 8
  %76 = load ptr, ptr %20, align 8
  %77 = load ptr, ptr %76, align 8
  store ptr %77, ptr %8, align 8
  %78 = load ptr, ptr %8, align 8
  store ptr %78, ptr %7, align 8
  %79 = load ptr, ptr %7, align 8
  %80 = call noundef nonnull align 8 dereferenceable(16) ptr @_ZN11V3GraphEdge6oLinksEv(ptr noundef nonnull align 8 dereferenceable(72) %79)
  %81 = load ptr, ptr %80, align 8
  %82 = load ptr, ptr %76, align 8
  store ptr %81, ptr %13, align 8
  store ptr %82, ptr %14, align 8
  %83 = load ptr, ptr %13, align 8
  %84 = icmp ne ptr %83, null
  br i1 %84, label %85, label %87

85:                                               ; preds = %75
  %86 = load ptr, ptr %13, align 8
  br label %89

87:                                               ; preds = %75
  %88 = load ptr, ptr %14, align 8
  br label %89

89:                                               ; preds = %87, %85
  %90 = phi ptr [ %86, %85 ], [ %88, %87 ]
  call void @llvm.prefetch.p0(ptr %90, i32 1, i32 3, i32 1)
  %91 = load ptr, ptr %76, align 8
  store ptr %91, ptr %31, align 8
  %92 = load ptr, ptr %31, align 8
  %93 = call noundef i32 @_ZNK11V3GraphEdge6weightEv(ptr noundef nonnull align 8 dereferenceable(72) %92)
  %94 = icmp ne i32 %93, 0
  br i1 %94, label %95, label %101

95:                                               ; preds = %89
  %96 = load ptr, ptr %31, align 8
  %97 = call noundef ptr @_ZNK11V3GraphEdge3topEv(ptr noundef nonnull align 8 dereferenceable(72) %96)
  %98 = call noundef double @_ZN7V3Graph15orderDFSIterateEP13V3GraphVertex(ptr noundef nonnull align 8 dereferenceable(24) %36, ptr noundef %97)
  %99 = load double, ptr %27, align 8
  %100 = fadd double %99, %98
  store double %100, ptr %27, align 8
  br label %101

101:                                              ; preds = %95, %89
  br label %102

102:                                              ; preds = %101
  store ptr %29, ptr %19, align 8
  %103 = load ptr, ptr %19, align 8
  %104 = load ptr, ptr %103, align 8
  store ptr %104, ptr %10, align 8
  %105 = load ptr, ptr %10, align 8
  store ptr %105, ptr %9, align 8
  %106 = load ptr, ptr %9, align 8
  %107 = call noundef nonnull align 8 dereferenceable(16) ptr @_ZN11V3GraphEdge6oLinksEv(ptr noundef nonnull align 8 dereferenceable(72) %106)
  %108 = load ptr, ptr %107, align 8
  store ptr %108, ptr %103, align 8
  br label %69

109:                                              ; preds = %69
  %110 = load ptr, ptr %25, align 8
  %111 = call noundef nonnull align 8 dereferenceable(16) ptr @_ZN13V3GraphVertex7inEdgesEv(ptr noundef nonnull align 8 dereferenceable(80) %110)
  store ptr %111, ptr %32, align 8
  %112 = load ptr, ptr %32, align 8
  %113 = call ptr @_ZN6V3ListI11V3GraphEdgeXadL_ZNS0_6iLinksEvEES0_E5beginEv(ptr noundef nonnull align 8 dereferenceable(16) %112)
  %114 = getelementptr inbounds %"class.V3List<V3GraphEdge, &V3GraphEdge::iLinks>::SimpleItertatorImpl", ptr %33, i32 0, i32 0
  store ptr %113, ptr %114, align 8
  %115 = load ptr, ptr %32, align 8
  %116 = call ptr @_ZN6V3ListI11V3GraphEdgeXadL_ZNS0_6iLinksEvEES0_E3endEv(ptr noundef nonnull align 8 dereferenceable(16) %115)
  %117 = getelementptr inbounds %"class.V3List<V3GraphEdge, &V3GraphEdge::iLinks>::SimpleItertatorImpl", ptr %34, i32 0, i32 0
  store ptr %116, ptr %117, align 8
  br label %118

118:                                              ; preds = %148, %109
  store ptr %33, ptr %17, align 8
  store ptr %34, ptr %18, align 8
  %119 = load ptr, ptr %17, align 8
  %120 = load ptr, ptr %119, align 8
  %121 = load ptr, ptr %18, align 8
  %122 = load ptr, ptr %121, align 8
  %123 = icmp ne ptr %120, %122
  br i1 %123, label %124, label %155

124:                                              ; preds = %118
  store ptr %33, ptr %16, align 8
  %125 = load ptr, ptr %16, align 8
  %126 = load ptr, ptr %125, align 8
  store ptr %126, ptr %4, align 8
  %127 = load ptr, ptr %4, align 8
  store ptr %127, ptr %3, align 8
  %128 = load ptr, ptr %3, align 8
  %129 = call noundef nonnull align 8 dereferenceable(16) ptr @_ZN11V3GraphEdge6iLinksEv(ptr noundef nonnull align 8 dereferenceable(72) %128)
  %130 = load ptr, ptr %129, align 8
  %131 = load ptr, ptr %125, align 8
  store ptr %130, ptr %11, align 8
  store ptr %131, ptr %12, align 8
  %132 = load ptr, ptr %11, align 8
  %133 = icmp ne ptr %132, null
  br i1 %133, label %134, label %136

134:                                              ; preds = %124
  %135 = load ptr, ptr %11, align 8
  br label %138

136:                                              ; preds = %124
  %137 = load ptr, ptr %12, align 8
  br label %138

138:                                              ; preds = %136, %134
  %139 = phi ptr [ %135, %134 ], [ %137, %136 ]
  call void @llvm.prefetch.p0(ptr %139, i32 1, i32 3, i32 1)
  %140 = load ptr, ptr %125, align 8
  store ptr %140, ptr %35, align 8
  %141 = load ptr, ptr %35, align 8
  %142 = call noundef i32 @_ZNK11V3GraphEdge6weightEv(ptr noundef nonnull align 8 dereferenceable(72) %141)
  %143 = icmp ne i32 %142, 0
  br i1 %143, label %144, label %147

144:                                              ; preds = %138
  %145 = load double, ptr %27, align 8
  %146 = fadd double %145, 1.000000e+00
  store double %146, ptr %27, align 8
  br label %147

147:                                              ; preds = %144, %138
  br label %148

148:                                              ; preds = %147
  store ptr %33, ptr %15, align 8
  %149 = load ptr, ptr %15, align 8
  %150 = load ptr, ptr %149, align 8
  store ptr %150, ptr %6, align 8
  %151 = load ptr, ptr %6, align 8
  store ptr %151, ptr %5, align 8
  %152 = load ptr, ptr %5, align 8
  %153 = call noundef nonnull align 8 dereferenceable(16) ptr @_ZN11V3GraphEdge6iLinksEv(ptr noundef nonnull align 8 dereferenceable(72) %152)
  %154 = load ptr, ptr %153, align 8
  store ptr %154, ptr %149, align 8
  br label %118

155:                                              ; preds = %118
  %156 = load ptr, ptr %25, align 8
  %157 = load double, ptr %27, align 8
  call void @_ZN13V3GraphVertex6fanoutEd(ptr noundef nonnull align 8 dereferenceable(80) %156, double noundef %157)
  %158 = load ptr, ptr %25, align 8
  call void @_ZN13V3GraphVertex4userEj(ptr noundef nonnull align 8 dereferenceable(80) %158, i32 noundef 2)
  %159 = load ptr, ptr %25, align 8
  %160 = call noundef double @_ZNK13V3GraphVertex6fanoutEv(ptr noundef nonnull align 8 dereferenceable(80) %159)
  store double %160, ptr %23, align 8
  br label %161

161:                                              ; preds = %155, %40
  %162 = load double, ptr %23, align 8
  ret double %162
}