; Function Attrs: mustprogress uwtable
define dso_local noundef double @_ZN7V3Graph15orderDFSIterateEP13V3GraphVertex(ptr nocapture noundef nonnull readnone align 8 dereferenceable(24) %0, ptr noundef %1) #3 align 2 {
  %3 = getelementptr inbounds i8, ptr %1, i64 72
  %4 = load i32, ptr %3, align 8
  switch i32 %4, label %12 [
    i32 2, label %5
    i32 1, label %8
  ]

5:                                                ; preds = %2
  %6 = getelementptr inbounds i8, ptr %1, i64 56
  %7 = load double, ptr %6, align 8
  br label %34

8:                                                ; preds = %2
  %9 = tail call noundef nonnull align 8 dereferenceable(112) ptr @_ZN7V3Error19v3errorPrepFileLineB5cxx11E11V3ErrorCodePKcib(i8 4, ptr noundef nonnull @.str.1, i32 noundef 489, i1 noundef zeroext true)
  %10 = tail call noundef nonnull align 8 dereferenceable(112) ptr @_ZN7V3Error10v3errorStrB5cxx11Ev()
  %11 = tail call noundef nonnull align 8 dereferenceable(8) ptr @_ZStlsISt11char_traitsIcEERSt13basic_ostreamIcT_ES5_PKc(ptr noundef nonnull align 8 dereferenceable(8) %10, ptr noundef nonnull @.str.3)
  tail call void @_ZNK13V3GraphVertex15v3errorEndFatalERNSt7__cxx1119basic_ostringstreamIcSt11char_traitsIcESaIcEEE(ptr noundef nonnull align 8 dereferenceable(80) %1, ptr noundef nonnull align 8 dereferenceable(112) %11)
  br label %12

12:                                               ; preds = %2, %8
  store i32 1, ptr %3, align 8
  %13 = getelementptr inbounds i8, ptr %1, i64 24
  %.sroa.050.062 = load ptr, ptr %13, align 8
  %.not5663 = icmp eq ptr %.sroa.050.062, null
  br i1 %.not5663, label %._crit_edge, label %.lr.ph

.lr.ph:                                           ; preds = %12, %24
  %.sroa.050.065 = phi ptr [ %.sroa.050.0, %24 ], [ %.sroa.050.062, %12 ]
  %.04464 = phi double [ %.1, %24 ], [ 0.000000e+00, %12 ]
  %14 = getelementptr inbounds i8, ptr %.sroa.050.065, i64 8
  %15 = load ptr, ptr %14, align 8
  %.not60 = icmp eq ptr %15, null
  %16 = select i1 %.not60, ptr %.sroa.050.065, ptr %15
  tail call void @llvm.prefetch.p0(ptr nonnull %16, i32 1, i32 3, i32 1)
  %17 = getelementptr inbounds i8, ptr %.sroa.050.065, i64 56
  %18 = load i32, ptr %17, align 8
  %.not61 = icmp eq i32 %18, 0
  br i1 %.not61, label %24, label %19

19:                                               ; preds = %.lr.ph
  %20 = getelementptr inbounds i8, ptr %.sroa.050.065, i64 48
  %21 = load ptr, ptr %20, align 8
  %22 = tail call noundef double @_ZN7V3Graph15orderDFSIterateEP13V3GraphVertex(ptr noundef nonnull align 8 dereferenceable(24) %0, ptr noundef %21)
  %23 = fadd double %.04464, %22
  %.sroa.050.0.pre = load ptr, ptr %14, align 8
  br label %24

24:                                               ; preds = %.lr.ph, %19
  %.sroa.050.0 = phi ptr [ %.sroa.050.0.pre, %19 ], [ %15, %.lr.ph ]
  %.1 = phi double [ %23, %19 ], [ %.04464, %.lr.ph ]
  %.not56 = icmp eq ptr %.sroa.050.0, null
  br i1 %.not56, label %._crit_edge, label %.lr.ph

._crit_edge:                                      ; preds = %24, %12
  %.044.lcssa = phi double [ 0.000000e+00, %12 ], [ %.1, %24 ]
  %25 = getelementptr inbounds i8, ptr %1, i64 40
  %26 = load ptr, ptr %25, align 8
  %.not5766 = icmp eq ptr %26, null
  br i1 %.not5766, label %._crit_edge71, label %.lr.ph70

.lr.ph70:                                         ; preds = %._crit_edge, %.lr.ph70
  %.268 = phi double [ %.3, %.lr.ph70 ], [ %.044.lcssa, %._crit_edge ]
  %.sroa.0.067 = phi ptr [ %28, %.lr.ph70 ], [ %26, %._crit_edge ]
  %27 = getelementptr inbounds i8, ptr %.sroa.0.067, i64 24
  %28 = load ptr, ptr %27, align 8
  %.not58 = icmp eq ptr %28, null
  %29 = select i1 %.not58, ptr %.sroa.0.067, ptr %28
  tail call void @llvm.prefetch.p0(ptr nonnull %29, i32 1, i32 3, i32 1)
  %30 = getelementptr inbounds i8, ptr %.sroa.0.067, i64 56
  %31 = load i32, ptr %30, align 8
  %.not59 = icmp eq i32 %31, 0
  %32 = fadd double %.268, 1.000000e+00
  %.3 = select i1 %.not59, double %.268, double %32
  br i1 %.not58, label %._crit_edge71, label %.lr.ph70

._crit_edge71:                                    ; preds = %.lr.ph70, %._crit_edge
  %.2.lcssa = phi double [ %.044.lcssa, %._crit_edge ], [ %.3, %.lr.ph70 ]
  %33 = getelementptr inbounds i8, ptr %1, i64 56
  store double %.2.lcssa, ptr %33, align 8
  store i32 2, ptr %3, align 8
  br label %34

34:                                               ; preds = %._crit_edge71, %5
  %.0 = phi double [ %7, %5 ], [ %.2.lcssa, %._crit_edge71 ]
  ret double %.0
}